; Function Attrs: mustprogress nofree norecurse nosync nounwind willreturn memory(write, argmem: readwrite, inaccessiblemem: none) uwtable
define dso_local void @LLVMSetNormalDest(ptr noundef %0, ptr noundef %1) local_unnamed_addr #19 {
  %3 = getelementptr inbounds i8, ptr %0, i64 -96
  %4 = load ptr, ptr %3, align 8
  %.not.i.i.i = icmp eq ptr %4, null
  br i1 %.not.i.i.i, label %_ZN4llvm3Use14removeFromListEv.exit.i.i.i, label %5

5:                                                ; preds = %2
  %6 = getelementptr inbounds i8, ptr %0, i64 -88
  %7 = load ptr, ptr %6, align 8
  %8 = getelementptr inbounds i8, ptr %0, i64 -80
  %9 = load ptr, ptr %8, align 8
  store ptr %7, ptr %9, align 8
  %.not.i.i.i.i = icmp eq ptr %7, null
  br i1 %.not.i.i.i.i, label %_ZN4llvm3Use14removeFromListEv.exit.i.i.i, label %10

10:                                               ; preds = %5
  %11 = load ptr, ptr %8, align 8
  %12 = getelementptr inbounds nuw i8, ptr %7, i64 16
  store ptr %11, ptr %12, align 8
  br label %_ZN4llvm3Use14removeFromListEv.exit.i.i.i

_ZN4llvm3Use14removeFromListEv.exit.i.i.i:        ; preds = %10, %5, %2
  store ptr %1, ptr %3, align 8
  %.not4.i.i.i = icmp eq ptr %1, null
  br i1 %.not4.i.i.i, label %_ZN4llvm10InvokeInst13setNormalDestEPNS_10BasicBlockE.exit, label %13

13:                                               ; preds = %_ZN4llvm3Use14removeFromListEv.exit.i.i.i
  %14 = getelementptr inbounds nuw i8, ptr %1, i64 16
  %15 = load ptr, ptr %14, align 8
  %16 = getelementptr inbounds i8, ptr %0, i64 -88
  store ptr %15, ptr %16, align 8
  %.not.i.i.i.i.i = icmp eq ptr %15, null
  br i1 %.not.i.i.i.i.i, label %_ZN4llvm5Value6addUseERNS_3UseE.exit.i.i.i, label %17

17:                                               ; preds = %13
  %18 = getelementptr inbounds nuw i8, ptr %15, i64 16
  store ptr %16, ptr %18, align 8
  br label %_ZN4llvm5Value6addUseERNS_3UseE.exit.i.i.i

_ZN4llvm5Value6addUseERNS_3UseE.exit.i.i.i:       ; preds = %17, %13
  %19 = getelementptr inbounds i8, ptr %0, i64 -80
  store ptr %14, ptr %19, align 8
  store ptr %3, ptr %14, align 8
  br label %_ZN4llvm10InvokeInst13setNormalDestEPNS_10BasicBlockE.exit

_ZN4llvm10InvokeInst13setNormalDestEPNS_10BasicBlockE.exit: ; preds = %_ZN4llvm3Use14removeFromListEv.exit.i.i.i, %_ZN4llvm5Value6addUseERNS_3UseE.exit.i.i.i
  ret void
}